(dp0
S'FBtr0070197'
p1
(lp2
(S'dwil'
p3
S'dwil_GLEANR_16729'
p4
tp5
a(S'dvir'
p6
S'dvir_GLEANR_16811'
p7
tp8
a(S'dper'
p9
S'dper_GLEANR_14917'
p10
tp11
a(S'dmoj'
p12
S'dmoj_GLEANR_16347'
p13
tp14
a(S'dsec'
p15
S'dsec_GLEANR_20708'
p16
tp17
a(S'dpse'
p18
S'dpse_GLEANR_10906'
p19
tp20
a(S'dsim'
p21
S'dsim_GLEANR_16748'
p22
tp23
a(S'dgri'
p24
S'dgri_GLEANR_11908'
p25
tp26
a(S'dmel'
p27
g1
tp28
a(S'dere'
p29
S'dere_GLEANR_12883'
p30
tp31
a(S'dana'
p32
S'dana_GLEANR_6117'
p33
tp34
a(S'dyak'
p35
S'dyak_GLEANR_18063'
p36
tp37
asS'FBtr0070115'
p38
(lp39
(g3
S'dwil_GLEANR_9766'
p40
tp41
a(g6
S'dvir_GLEANR_16218'
p42
tp43
a(g9
S'dper_GLEANR_3326'
p44
tp45
a(g12
S'dmoj_GLEANR_11011'
p46
tp47
a(g15
S'dsec_GLEANR_20674'
p48
tp49
a(g18
S'dpse_GLEANR_681'
p50
tp51
a(g21
S'dsim_GLEANR_16722'
p52
tp53
a(g24
S'dgri_GLEANR_11998'
p54
tp55
a(g27
g38
tp56
a(g29
S'dere_GLEANR_12854'
p57
tp58
a(g32
S'dana_GLEANR_6089'
p59
tp60
a(g35
S'dyak_GLEANR_18028'
p61
tp62
asS'FBtr0070191'
p63
(lp64
(g3
S'dwil_GLEANR_10113'
p65
tp66
a(g6
S'dvir_GLEANR_15675'
p67
tp68
a(g9
S'dper_GLEANR_15108'
p69
tp70
a(g12
S'dmoj_GLEANR_15776'
p71
tp72
a(g15
S'dsec_GLEANR_20615'
p73
tp74
a(g18
S'dpse_GLEANR_10128'
p75
tp76
a(g21
S'dsim_GLEANR_16662'
p77
tp78
a(g24
S'dgri_GLEANR_12339'
p79
tp80
a(g27
g63
tp81
a(g29
S'dere_GLEANR_12796'
p82
tp83
a(g32
S'dana_GLEANR_6042'
p84
tp85
a(g35
S'dyak_GLEANR_17969'
p86
tp87
asS'FBtr0070198'
p88
(lp89
(g3
S'dwil_GLEANR_20083'
p90
tp91
a(g6
S'dvir_GLEANR_16812'
p92
tp93
a(g9
S'dper_GLEANR_14918'
p94
tp95
a(g12
S'dmoj_GLEANR_16348'
p96
tp97
a(g15
S'dsec_GLEANR_20709'
p98
tp99
a(g18
S'dpse_GLEANR_10907'
p100
tp101
a(g21
S'dsim_GLEANR_8588'
p102
tp103
a(g24
S'dgri_GLEANR_11909'
p104
tp105
a(g27
g88
tp106
a(g29
S'dere_GLEANR_12884'
p107
tp108
a(g32
S'dana_GLEANR_6119'
p109
tp110
a(g35
S'dyak_GLEANR_18065'
p111
tp112
asS'FBtr0070155'
p113
(lp114
(g3
S'dwil_GLEANR_9586'
p115
tp116
a(g6
S'dvir_GLEANR_15017'
p117
tp118
a(g9
S'dper_GLEANR_15489'
p119
tp120
a(g12
S'dmoj_GLEANR_10995'
p121
tp122
a(g15
S'dsec_GLEANR_20632'
p123
tp124
a(g18
S'dpse_GLEANR_1293'
p125
tp126
a(g21
S'dsim_GLEANR_16679'
p127
tp128
a(g24
S'dgri_GLEANR_9252'
p129
tp130
a(g27
g113
tp131
a(g29
S'dere_GLEANR_12811'
p132
tp133
a(g32
S'dana_GLEANR_4549'
p134
tp135
a(g35
S'dyak_GLEANR_17984'
p136
tp137
asS'FBtr0070141'
p138
(lp139
(g3
S'dwil_GLEANR_9134'
p140
tp141
a(g6
S'dvir_GLEANR_15528'
p142
tp143
a(g9
S'dper_GLEANR_14892'
p144
tp145
a(g12
S'dmoj_GLEANR_16325'
p146
tp147
a(g15
S'dsec_GLEANR_20689'
p148
tp149
a(g18
S'dpse_GLEANR_10384'
p150
tp151
a(g21
S'dsim_GLEANR_16736'
p152
tp153
a(g24
S'dgri_GLEANR_12253'
p154
tp155
a(g27
g138
tp156
a(g29
S'dere_GLEANR_12867'
p157
tp158
a(g32
S'dana_GLEANR_6092'
p159
tp160
a(g35
S'dyak_GLEANR_18044'
p161
tp162
asS'FBtr0070025'
p163
(lp164
(g3
S'dwil_GLEANR_9750'
p165
tp166
a(g6
S'dvir_GLEANR_16216'
p167
tp168
a(g9
S'dper_GLEANR_13097'
p169
tp170
a(g12
S'dmoj_GLEANR_11009'
p171
tp172
a(g15
S'dsec_GLEANR_5515'
p173
tp174
a(g18
S'dpse_GLEANR_1107'
p175
tp176
a(g21
S'dsim_GLEANR_667'
p177
tp178
a(g24
S'dgri_GLEANR_11996'
p179
tp180
a(g27
g163
tp181
a(g29
S'dere_GLEANR_2886'
p182
tp183
a(g32
S'dana_GLEANR_2854'
p184
tp185
a(g35
S'dyak_GLEANR_16887'
p186
tp187
asS'FBtr0070138'
p188
(lp189
(g3
S'dwil_GLEANR_2686'
p190
tp191
a(g6
S'dvir_GLEANR_3866'
p192
tp193
a(g9
S'dper_GLEANR_9292'
p194
tp195
a(g12
S'dmoj_GLEANR_11040'
p196
tp197
a(g15
S'dsec_GLEANR_20685'
p198
tp199
a(g18
S'dpse_GLEANR_11501'
p200
tp201
a(g21
S'dsim_GLEANR_16733'
p202
tp203
a(g24
S'dgri_GLEANR_2068'
p204
tp205
a(g27
g188
tp206
a(g29
S'dere_GLEANR_12864'
p207
tp208
a(g32
S'dana_GLEANR_4416'
p209
tp210
a(g35
S'dyak_GLEANR_18039'
p211
tp212
asS'FBtr0070203'
p213
(lp214
(g3
S'dwil_GLEANR_9072'
p215
tp216
a(g6
S'dvir_GLEANR_16341'
p217
tp218
a(g9
S'dper_GLEANR_14923'
p219
tp220
a(g12
S'dmoj_GLEANR_16944'
p221
tp222
a(g15
S'dsec_GLEANR_20713'
p223
tp224
a(g18
S'dpse_GLEANR_10912'
p225
tp226
a(g21
S'dsim_GLEANR_16751'
p227
tp228
a(g24
S'dgri_GLEANR_12512'
p229
tp230
a(g27
g213
tp231
a(g29
S'dere_GLEANR_12889'
p232
tp233
a(g32
S'dana_GLEANR_6124'
p234
tp235
a(g35
S'dyak_GLEANR_18070'
p236
tp237
asS'FBtr0070121'
p238
(lp239
(g3
S'dwil_GLEANR_10235'
p240
tp241
a(g6
S'dvir_GLEANR_16375'
p242
tp243
a(g9
S'dper_GLEANR_13750'
p244
tp245
a(g12
S'dmoj_GLEANR_17188'
p246
tp247
a(g15
S'dsec_GLEANR_20678'
p248
tp249
a(g18
S'dpse_GLEANR_11125'
p250
tp251
a(g21
S'dsim_GLEANR_16725'
p252
tp253
a(g24
S'dgri_GLEANR_2012'
p254
tp255
a(g27
g238
tp256
a(g29
S'dere_GLEANR_12858'
p257
tp258
a(g32
S'dana_GLEANR_6164'
p259
tp260
a(g35
S'dyak_GLEANR_18032'
p261
tp262
asS'FBtr0005088'
p263
(lp264
(g3
S'dwil_GLEANR_8299'
p265
tp266
a(g6
S'dvir_GLEANR_1660'
p267
tp268
a(g9
S'dper_GLEANR_21368'
p269
tp270
a(g12
S'dmoj_GLEANR_2157'
p271
tp272
a(g15
S'dsec_GLEANR_1817'
p273
tp274
a(g18
S'dpse_GLEANR_2286'
p275
tp276
a(g21
S'dsim_GLEANR_7265'
p277
tp278
a(g24
S'dgri_GLEANR_10756'
p279
tp280
a(g27
g263
tp281
a(g29
S'dere_GLEANR_10456'
p282
tp283
a(g32
S'dana_GLEANR_15987'
p284
tp285
a(g35
S'dyak_GLEANR_2545'
p286
tp287
asS'FBtr0070028'
p288
(lp289
(g3
S'dwil_GLEANR_16706'
p290
tp291
a(g6
S'dvir_GLEANR_4367'
p292
tp293
a(g9
S'dper_GLEANR_13100'
p294
tp295
a(g12
S'dmoj_GLEANR_15594'
p296
tp297
a(g15
S'dsec_GLEANR_5519'
p298
tp299
a(g18
S'dpse_GLEANR_1110'
p300
tp301
a(g21
S'dsim_GLEANR_15801'
p302
tp303
a(g24
S'dgri_GLEANR_8974'
p304
tp305
a(g27
g288
tp306
a(g29
S'dere_GLEANR_2889'
p307
tp308
a(g32
S'dana_GLEANR_2857'
p309
tp310
a(g35
S'dyak_GLEANR_18680'
p311
tp312
asS'FBtr0070109'
p313
(lp314
(g3
S'dwil_GLEANR_16801'
p315
tp316
a(g6
S'dvir_GLEANR_4396'
p317
tp318
a(g9
S'dper_GLEANR_3321'
p319
tp320
a(g12
S'dmoj_GLEANR_15627'
p321
tp322
a(g15
S'dsec_GLEANR_20671'
p323
tp324
a(g18
S'dpse_GLEANR_676'
p325
tp326
a(g21
S'dsim_GLEANR_16718'
p327
tp328
a(g24
S'dgri_GLEANR_8849'
p329
tp330
a(g27
g313
tp331
a(g29
S'dere_GLEANR_12850'
p332
tp333
a(g32
S'dana_GLEANR_6083'
p334
tp335
a(g35
S'dyak_GLEANR_18024'
p336
tp337
asS'FBtr0070108'
p338
(lp339
(g3
S'dwil_GLEANR_10064'
p340
tp341
a(g6
S'dvir_GLEANR_17503'
p342
tp343
a(g9
S'dper_GLEANR_13748'
p344
tp345
a(g12
S'dmoj_GLEANR_6802'
p346
tp347
a(g15
S'dsec_GLEANR_20649'
p348
tp349
a(g18
S'dpse_GLEANR_11127'
p350
tp351
a(g21
S'dsim_GLEANR_16697'
p352
tp353
a(g24
S'dgri_GLEANR_9325'
p354
tp355
a(g27
g338
tp356
a(g29
S'dere_GLEANR_12828'
p357
tp358
a(g32
S'dana_GLEANR_6159'
p359
tp360
a(g35
S'dyak_GLEANR_18002'
p361
tp362
asS'FBtr0070042'
p363
(lp364
(g3
S'dwil_GLEANR_12313'
p365
tp366
a(g6
S'dvir_GLEANR_11181'
p367
tp368
a(g9
S'dper_GLEANR_3950'
p369
tp370
a(g12
S'dmoj_GLEANR_8752'
p371
tp372
a(g15
S'dsec_GLEANR_5278'
p373
tp374
a(g18
S'dpse_GLEANR_10074'
p375
tp376
a(g21
S'dsim_GLEANR_17824'
p377
tp378
a(g24
S'dgri_GLEANR_6520'
p379
tp380
a(g27
g363
tp381
a(g29
S'dere_GLEANR_13447'
p382
tp383
a(g32
S'dana_GLEANR_10977'
p384
tp385
a(g35
S'dyak_GLEANR_6320'
p386
tp387
asS'FBtr0070230'
p388
(lp389
(g3
S'dwil_GLEANR_16694'
p390
tp391
a(g6
S'dvir_GLEANR_15651'
p392
tp393
a(g9
S'dper_GLEANR_14941'
p394
tp395
a(g12
S'dmoj_GLEANR_15687'
p396
tp397
a(g15
S'dsec_GLEANR_20582'
p398
tp399
a(g18
S'dpse_GLEANR_10931'
p400
tp401
a(g21
S'dsim_GLEANR_16637'
p402
tp403
a(g24
S'dgri_GLEANR_8744'
p404
tp405
a(g27
g388
tp406
a(g29
S'dere_GLEANR_12766'
p407
tp408
a(g32
S'dana_GLEANR_4152'
p409
tp410
a(g35
S'dyak_GLEANR_19423'
p411
tp412
asS'FBtr0070040'
p413
(lp414
(g3
S'dwil_GLEANR_12110'
p415
tp416
a(g6
S'dvir_GLEANR_8959'
p417
tp418
a(g9
S'dper_GLEANR_4053'
p419
tp420
a(g12
S'dmoj_GLEANR_8928'
p421
tp422
a(g15
S'dsec_GLEANR_5281'
p423
tp424
a(g18
S'dpse_GLEANR_2857'
p425
tp426
a(g21
S'dsim_GLEANR_15061'
p427
tp428
a(g24
S'dgri_GLEANR_2451'
p429
tp430
a(g27
g413
tp431
a(g29
S'dere_GLEANR_13443'
p432
tp433
a(g32
S'dana_GLEANR_10978'
p434
tp435
a(g35
S'dyak_GLEANR_6327'
p436
tp437
asS'FBtr0070103'
p438
(lp439
(g3
S'dwil_GLEANR_9987'
p440
tp441
a(g6
S'dvir_GLEANR_3480'
p442
tp443
a(g9
S'dper_GLEANR_22533'
p444
tp445
a(g12
S'dmoj_GLEANR_16508'
p446
tp447
a(g15
S'dsec_GLEANR_20645'
p448
tp449
a(g18
S'dpse_GLEANR_435'
p450
tp451
a(g21
S'dsim_GLEANR_16693'
p452
tp453
a(g24
S'dgri_GLEANR_9391'
p454
tp455
a(g27
g438
tp456
a(g29
S'dere_GLEANR_12824'
p457
tp458
a(g32
S'dana_GLEANR_4067'
p459
tp460
a(g35
S'dyak_GLEANR_17998'
p461
tp462
asS'FBtr0070047'
p463
(lp464
(g3
S'dwil_GLEANR_11107'
p465
tp466
a(g6
S'dvir_GLEANR_11190'
p467
tp468
a(g9
S'dper_GLEANR_4054'
p469
tp470
a(g12
S'dmoj_GLEANR_8925'
p471
tp472
a(g15
S'dsec_GLEANR_5275'
p473
tp474
a(g18
S'dpse_GLEANR_2858'
p475
tp476
a(g21
S'dsim_GLEANR_12116'
p477
tp478
a(g24
S'dgri_GLEANR_3859'
p479
tp480
a(g27
g463
tp481
a(g29
S'dere_GLEANR_16291'
p482
tp483
a(g32
S'dana_GLEANR_3093'
p484
tp485
a(g35
S'dyak_GLEANR_3320'
p486
tp487
asS'FBtr0070101'
p488
(lp489
(g3
S'dwil_GLEANR_10072'
p490
tp491
a(g6
S'dvir_GLEANR_3477'
p492
tp493
a(g9
S'dper_GLEANR_22531'
p494
tp495
a(g12
S'dmoj_GLEANR_16506'
p496
tp497
a(g15
S'dsec_GLEANR_20644'
p498
tp499
a(g18
S'dpse_GLEANR_433'
p500
tp501
a(g21
S'dsim_GLEANR_16692'
p502
tp503
a(g24
S'dgri_GLEANR_9390'
p504
tp505
a(g27
g488
tp506
a(g29
S'dere_GLEANR_12823'
p507
tp508
a(g32
S'dana_GLEANR_4066'
p509
tp510
a(g35
S'dyak_GLEANR_17997'
p511
tp512
asS'FBtr0070088'
p513
(lp514
(g3
S'dwil_GLEANR_16875'
p515
tp516
a(g6
S'dvir_GLEANR_15097'
p517
tp518
a(g9
S'dper_GLEANR_22727'
p519
tp520
a(g12
S'dmoj_GLEANR_15921'
p521
tp522
a(g15
S'dsec_GLEANR_20670'
p523
tp524
a(g18
S'dpse_GLEANR_966'
p525
tp526
a(g21
S'dsim_GLEANR_16717'
p527
tp528
a(g24
S'dgri_GLEANR_12011'
p529
tp530
a(g27
g513
tp531
a(g29
S'dere_GLEANR_12849'
p532
tp533
a(g32
S'dana_GLEANR_5939'
p534
tp535
a(g35
S'dyak_GLEANR_18023'
p536
tp537
asS'FBtr0070216'
p538
(lp539
(g3
S'dwil_GLEANR_1667'
p540
tp541
a(g6
S'dvir_GLEANR_16110'
p542
tp543
a(g9
S'dper_GLEANR_14934'
p544
tp545
a(g12
S'dmoj_GLEANR_17050'
p546
tp547
a(g15
S'dsec_GLEANR_20723'
p548
tp549
a(g18
S'dpse_GLEANR_10924'
p550
tp551
a(g21
S'dsim_GLEANR_16757'
p552
tp553
a(g24
S'dgri_GLEANR_12023'
p554
tp555
a(g27
g538
tp556
a(g29
S'dere_GLEANR_12900'
p557
tp558
a(g32
S'dana_GLEANR_4244'
p559
tp560
a(g35
S'dyak_GLEANR_18082'
p561
tp562
asS'FBtr0070215'
p563
(lp564
(g3
S'dwil_GLEANR_1706'
p565
tp566
a(g6
S'dvir_GLEANR_16108'
p567
tp568
a(g9
S'dper_GLEANR_14932'
p569
tp570
a(g12
S'dmoj_GLEANR_17048'
p571
tp572
a(g15
S'dsec_GLEANR_20722'
p573
tp574
a(g18
S'dpse_GLEANR_10922'
p575
tp576
a(g21
S'dsim_GLEANR_16756'
p577
tp578
a(g24
S'dgri_GLEANR_12022'
p579
tp580
a(g27
g563
tp581
a(g29
S'dere_GLEANR_12899'
p582
tp583
a(g32
S'dana_GLEANR_4243'
p584
tp585
a(g35
S'dyak_GLEANR_18081'
p586
tp587
asS'FBtr0070063'
p588
(lp589
(g3
S'dwil_GLEANR_9168'
p590
tp591
a(g6
S'dvir_GLEANR_16946'
p592
tp593
a(g9
S'dper_GLEANR_13765'
p594
tp595
a(g12
S'dmoj_GLEANR_6436'
p596
tp597
a(g15
S'dsec_GLEANR_20650'
p598
tp599
a(g18
S'dpse_GLEANR_11198'
p600
tp601
a(g21
S'dsim_GLEANR_16702'
p602
tp603
a(g24
S'dgri_GLEANR_8882'
p604
tp605
a(g27
g588
tp606
a(g29
S'dere_GLEANR_12832'
p607
tp608
a(g32
S'dana_GLEANR_5993'
p609
tp610
a(g35
S'dyak_GLEANR_18006'
p611
tp612
asS'FBtr0070147'
p613
(lp614
(g3
S'dwil_GLEANR_2413'
p615
tp616
a(g6
S'dvir_GLEANR_3991'
p617
tp618
a(g9
S'dper_GLEANR_9406'
p619
tp620
a(g12
S'dmoj_GLEANR_10919'
p621
tp622
a(g15
S'dsec_GLEANR_20624'
p623
tp624
a(g18
S'dpse_GLEANR_10788'
p625
tp626
a(g21
S'dsim_GLEANR_16671'
p627
tp628
a(g24
S'dgri_GLEANR_2248'
p629
tp630
a(g27
g613
tp631
a(g29
S'dere_GLEANR_12804'
p632
tp633
a(g32
S'dana_GLEANR_4305'
p634
tp635
a(g35
S'dyak_GLEANR_17977'
p636
tp637
asS'FBtr0070160'
p638
(lp639
(g3
S'dwil_GLEANR_16556'
p640
tp641
a(g6
S'dvir_GLEANR_3499'
p642
tp643
a(g9
S'dper_GLEANR_3339'
p644
tp645
a(g12
S'dmoj_GLEANR_16530'
p646
tp647
a(g15
S'dsec_GLEANR_20634'
p648
tp649
a(g18
S'dpse_GLEANR_665'
p650
tp651
a(g21
S'dsim_GLEANR_16681'
p652
tp653
a(g24
S'dgri_GLEANR_9265'
p654
tp655
a(g27
g638
tp656
a(g29
S'dere_GLEANR_12813'
p657
tp658
a(g32
S'dana_GLEANR_6051'
p659
tp660
a(g35
S'dyak_GLEANR_17986'
p661
tp662
asS'FBtr0070211'
p663
(lp664
(g3
S'dwil_GLEANR_16735'
p665
tp666
a(g6
S'dvir_GLEANR_3750'
p667
tp668
a(g9
S'dper_GLEANR_14930'
p669
tp670
a(g12
S'dmoj_GLEANR_15753'
p671
tp672
a(g15
S'dsec_GLEANR_20719'
p673
tp674
a(g18
S'dpse_GLEANR_10919'
p675
tp676
a(g21
S'dsim_GLEANR_8594'
p677
tp678
a(g24
S'dgri_GLEANR_12733'
p679
tp680
a(g27
g663
tp681
a(g29
S'dere_GLEANR_12896'
p682
tp683
a(g32
S'dana_GLEANR_4240'
p684
tp685
a(g35
S'dyak_GLEANR_18078'
p686
tp687
asS'FBtr0070089'
p688
(lp689
(g3
S'dwil_GLEANR_16507'
p690
tp691
a(g6
S'dvir_GLEANR_14962'
p692
tp693
a(g9
S'dper_GLEANR_22521'
p694
tp695
a(g12
S'dmoj_GLEANR_16174'
p696
tp697
a(g15
S'dsec_GLEANR_20636'
p698
tp699
a(g18
S'dpse_GLEANR_424'
p700
tp701
a(g21
S'dsim_GLEANR_16684'
p702
tp703
a(g24
S'dgri_GLEANR_12523'
p704
tp705
a(g27
g688
tp706
a(g29
S'dere_GLEANR_12815'
p707
tp708
a(g32
S'dana_GLEANR_6200'
p709
tp710
a(g35
S'dyak_GLEANR_17988'
p711
tp712
asS'FBtr0070064'
p713
(lp714
(g3
S'dwil_GLEANR_9170'
p715
tp716
a(g6
S'dvir_GLEANR_16948'
p717
tp718
a(g9
S'dper_GLEANR_13767'
p719
tp720
a(g12
S'dmoj_GLEANR_6438'
p721
tp722
a(g15
S'dsec_GLEANR_20652'
p723
tp724
a(g18
S'dpse_GLEANR_11129'
p725
tp726
a(g21
S'dsim_GLEANR_16705'
p727
tp728
a(g24
S'dgri_GLEANR_8884'
p729
tp730
a(g27
g713
tp731
a(g29
S'dere_GLEANR_12834'
p732
tp733
a(g32
S'dana_GLEANR_5995'
p734
tp735
a(g35
S'dyak_GLEANR_18008'
p736
tp737
asS'FBtr0070149'
p738
(lp739
(g3
S'dwil_GLEANR_16560'
p740
tp741
a(g6
S'dvir_GLEANR_3993'
p742
tp743
a(g9
S'dper_GLEANR_3341'
p744
tp745
a(g12
S'dmoj_GLEANR_6712'
p746
tp747
a(g15
S'dsec_GLEANR_20626'
p748
tp749
a(g18
S'dpse_GLEANR_668'
p750
tp751
a(g21
S'dsim_GLEANR_16672'
p752
tp753
a(g24
S'dgri_GLEANR_2251'
p754
tp755
a(g27
g738
tp756
a(g29
S'dere_GLEANR_12806'
p757
tp758
a(g32
S'dana_GLEANR_4323'
p759
tp760
a(g35
S'dyak_GLEANR_17979'
p761
tp762
asS'FBtr0070081'
p763
(lp764
(g3
S'dwil_GLEANR_16874'
p765
tp766
a(g6
S'dvir_GLEANR_15096'
p767
tp768
a(g9
S'dper_GLEANR_22726'
p769
tp770
a(g12
S'dmoj_GLEANR_15920'
p771
tp772
a(g15
S'dsec_GLEANR_20669'
p773
tp774
a(g18
S'dpse_GLEANR_965'
p775
tp776
a(g21
S'dsim_GLEANR_16716'
p777
tp778
a(g24
S'dgri_GLEANR_9405'
p779
tp780
a(g27
g763
tp781
a(g29
S'dere_GLEANR_12848'
p782
tp783
a(g32
S'dana_GLEANR_5938'
p784
tp785
a(g35
S'dyak_GLEANR_18022'
p786
tp787
asS'FBtr0070187'
p788
(lp789
(g3
S'dwil_GLEANR_10109'
p790
tp791
a(g6
S'dvir_GLEANR_15670'
p792
tp793
a(g9
S'dper_GLEANR_15104'
p794
tp795
a(g12
S'dmoj_GLEANR_15771'
p796
tp797
a(g15
S'dsec_GLEANR_20611'
p798
tp799
a(g18
S'dpse_GLEANR_10125'
p800
tp801
a(g21
S'dsim_GLEANR_16659'
p802
tp803
a(g24
S'dgri_GLEANR_12654'
p804
tp805
a(g27
g788
tp806
a(g29
S'dere_GLEANR_12792'
p807
tp808
a(g32
S'dana_GLEANR_6038'
p809
tp810
a(g35
S'dyak_GLEANR_17965'
p811
tp812
asS'FBtr0070183'
p813
(lp814
(g3
S'dwil_GLEANR_10104'
p815
tp816
a(g6
S'dvir_GLEANR_15665'
p817
tp818
a(g9
S'dper_GLEANR_15090'
p819
tp820
a(g12
S'dmoj_GLEANR_15768'
p821
tp822
a(g15
S'dsec_GLEANR_20605'
p823
tp824
a(g18
S'dpse_GLEANR_11432'
p825
tp826
a(g21
S'dsim_GLEANR_1627'
p827
tp828
a(g24
S'dgri_GLEANR_12651'
p829
tp830
a(g27
g813
tp831
a(g29
S'dere_GLEANR_12787'
p832
tp833
a(g32
S'dana_GLEANR_6031'
p834
tp835
a(g35
S'dyak_GLEANR_17960'
p836
tp837
asS'FBtr0070182'
p838
(lp839
(g3
S'dwil_GLEANR_16624'
p840
tp841
a(g6
S'dvir_GLEANR_15662'
p842
tp843
a(g9
S'dper_GLEANR_15088'
p844
tp845
a(g12
S'dmoj_GLEANR_15765'
p846
tp847
a(g15
S'dsec_GLEANR_20603'
p848
tp849
a(g18
S'dpse_GLEANR_11430'
p850
tp851
a(g21
S'dsim_GLEANR_16652'
p852
tp853
a(g24
S'dgri_GLEANR_12650'
p854
tp855
a(g27
g838
tp856
a(g29
S'dere_GLEANR_12785'
p857
tp858
a(g32
S'dana_GLEANR_6029'
p859
tp860
a(g35
S'dyak_GLEANR_17958'
p861
tp862
asS'FBtr0005009'
p863
(lp864
(g3
S'dwil_GLEANR_18332'
p865
tp866
a(g6
S'dvir_GLEANR_6548'
p867
tp868
a(g9
S'dper_GLEANR_11123'
p869
tp870
a(g12
S'dmoj_GLEANR_4958'
p871
tp872
a(g15
S'dsec_GLEANR_4235'
p873
tp874
a(g18
S'dpse_GLEANR_14954'
p875
tp876
a(g21
S'dsim_GLEANR_10928'
p877
tp878
a(g24
S'dgri_GLEANR_5765'
p879
tp880
a(g27
g863
tp881
a(g29
S'dere_GLEANR_5174'
p882
tp883
a(g32
S'dana_GLEANR_13691'
p884
tp885
a(g35
S'dyak_GLEANR_12777'
p886
tp887
asS'FBtr0070106'
p888
(lp889
(g3
S'dwil_GLEANR_10063'
p890
tp891
a(g6
S'dvir_GLEANR_17501'
p892
tp893
a(g9
S'dper_GLEANR_13745'
p894
tp895
a(g12
S'dmoj_GLEANR_6800'
p896
tp897
a(g15
S'dsec_GLEANR_20648'
p898
tp899
a(g18
S'dpse_GLEANR_11195'
p900
tp901
a(g21
S'dsim_GLEANR_16696'
p902
tp903
a(g24
S'dgri_GLEANR_9351'
p904
tp905
a(g27
g888
tp906
a(g29
S'dere_GLEANR_12827'
p907
tp908
a(g32
S'dana_GLEANR_6158'
p909
tp910
a(g35
S'dyak_GLEANR_18001'
p911
tp912
asS'FBtr0070188'
p913
(lp914
(g3
S'dwil_GLEANR_10110'
p915
tp916
a(g6
S'dvir_GLEANR_15671'
p917
tp918
a(g9
S'dper_GLEANR_20680'
p919
tp920
a(g12
S'dmoj_GLEANR_15772'
p921
tp922
a(g15
S'dsec_GLEANR_20612'
p923
tp924
a(g18
S'dpse_GLEANR_1817'
p925
tp926
a(g21
S'dsim_GLEANR_16661'
p927
tp928
a(g24
S'dgri_GLEANR_3840'
p929
tp930
a(g27
g913
tp931
a(g29
S'dere_GLEANR_12793'
p932
tp933
a(g32
S'dana_GLEANR_6039'
p934
tp935
a(g35
S'dyak_GLEANR_17966'
p936
tp937
asS'FBtr0070179'
p938
(lp939
(g3
S'dwil_GLEANR_16726'
p940
tp941
a(g6
S'dvir_GLEANR_15544'
p942
tp943
a(g9
S'dper_GLEANR_14912'
p944
tp945
a(g12
S'dmoj_GLEANR_16340'
p946
tp947
a(g15
S'dsec_GLEANR_20706'
p948
tp949
a(g18
S'dpse_GLEANR_10899'
p950
tp951
a(g21
S'dsim_GLEANR_16747'
p952
tp953
a(g24
S'dgri_GLEANR_11905'
p954
tp955
a(g27
g938
tp956
a(g29
S'dere_GLEANR_12882'
p957
tp958
a(g32
S'dana_GLEANR_6112'
p959
tp960
a(g35
S'dyak_GLEANR_18061'
p961
tp962
asS'FBtr0070146'
p963
(lp964
(g3
S'dwil_GLEANR_2598'
p965
tp966
a(g6
S'dvir_GLEANR_4383'
p967
tp968
a(g9
S'dper_GLEANR_15121'
p969
tp970
a(g12
S'dmoj_GLEANR_15613'
p971
tp972
a(g15
S'dsec_GLEANR_20623'
p973
tp974
a(g18
S'dpse_GLEANR_10140'
p975
tp976
a(g21
S'dsim_GLEANR_16670'
p977
tp978
a(g24
S'dgri_GLEANR_12375'
p979
tp980
a(g27
g963
tp981
a(g29
S'dere_GLEANR_12803'
p982
tp983
a(g32
S'dana_GLEANR_6049'
p984
tp985
a(g35
S'dyak_GLEANR_17976'
p986
tp987
asS'FBtr0070069'
p988
(lp989
(g3
S'dwil_GLEANR_9162'
p990
tp991
a(g6
S'dvir_GLEANR_4392'
p992
tp993
a(g9
S'dper_GLEANR_22710'
p994
tp995
a(g12
S'dmoj_GLEANR_15623'
p996
tp997
a(g15
S'dsec_GLEANR_20653'
p998
tp999
a(g18
S'dpse_GLEANR_950'
p1000
tp1001
a(g21
S'dsim_GLEANR_16706'
p1002
tp1003
a(g24
S'dgri_GLEANR_7567'
p1004
tp1005
a(g27
g988
tp1006
a(g29
S'dere_GLEANR_12835'
p1007
tp1008
a(g32
S'dana_GLEANR_4641'
p1009
tp1010
a(g35
S'dyak_GLEANR_18009'
p1011
tp1012
asS'FBtr0070170'
p1013
(lp1014
(g3
S'dwil_GLEANR_9142'
p1015
tp1016
a(g6
S'dvir_GLEANR_15535'
p1017
tp1018
a(g9
S'dper_GLEANR_14904'
p1019
tp1020
a(g12
S'dmoj_GLEANR_16331'
p1021
tp1022
a(g15
S'dsec_GLEANR_20698'
p1023
tp1024
a(g18
S'dpse_GLEANR_10396'
p1025
tp1026
a(g21
S'dsim_GLEANR_16741'
p1027
tp1028
a(g24
S'dgri_GLEANR_11897'
p1029
tp1030
a(g27
g1013
tp1031
a(g29
S'dere_GLEANR_12875'
p1032
tp1033
a(g32
S'dana_GLEANR_6102'
p1034
tp1035
a(g35
S'dyak_GLEANR_18052'
p1036
tp1037
asS'FBtr0070000'
p1038
(lp1039
(g3
S'dwil_GLEANR_16642'
p1040
tp1041
a(g6
S'dvir_GLEANR_3493'
p1042
tp1043
a(g9
S'dper_GLEANR_13252'
p1044
tp1045
a(g12
S'dmoj_GLEANR_16522'
p1046
tp1047
a(g15
S'dsec_GLEANR_5822'
p1048
tp1049
a(g18
S'dpse_GLEANR_266'
p1050
tp1051
a(g21
S'dsim_GLEANR_17595'
p1052
tp1053
a(g24
S'dgri_GLEANR_9259'
p1054
tp1055
a(g27
g1038
tp1056
a(g29
S'dere_GLEANR_4023'
p1057
tp1058
a(g32
S'dana_GLEANR_2637'
p1059
tp1060
a(g35
S'dyak_GLEANR_17354'
p1061
tp1062
asS'FBtr0006151'
p1063
(lp1064
(g3
S'dwil_GLEANR_18640'
p1065
tp1066
a(g6
S'dvir_GLEANR_2773'
p1067
tp1068
a(g9
S'dper_GLEANR_8538'
p1069
tp1070
a(g12
S'dmoj_GLEANR_2442'
p1071
tp1072
a(g15
S'dsec_GLEANR_1649'
p1073
tp1074
a(g18
S'dpse_GLEANR_16616'
p1075
tp1076
a(g21
S'dsim_GLEANR_7698'
p1077
tp1078
a(g24
S'dgri_GLEANR_13324'
p1079
tp1080
a(g27
g1063
tp1081
a(g29
S'dere_GLEANR_9784'
p1082
tp1083
a(g32
S'dana_GLEANR_15654'
p1084
tp1085
a(g35
S'dyak_GLEANR_2817'
p1086
tp1087
asS'FBtr0070134'
p1088
(lp1089
(g3
S'dwil_GLEANR_16800'
p1090
tp1091
a(g6
S'dvir_GLEANR_3865'
p1092
tp1093
a(g9
S'dper_GLEANR_3320'
p1094
tp1095
a(g12
S'dmoj_GLEANR_6517'
p1096
tp1097
a(g15
S'dsec_GLEANR_20683'
p1098
tp1099
a(g18
S'dpse_GLEANR_675'
p1100
tp1101
a(g21
S'dsim_GLEANR_16730'
p1102
tp1103
a(g24
S'dgri_GLEANR_2067'
p1104
tp1105
a(g27
g1088
tp1106
a(g29
S'dere_GLEANR_12862'
p1107
tp1108
a(g32
S'dana_GLEANR_4400'
p1109
tp1110
a(g35
S'dyak_GLEANR_18036'
p1111
tp1112
asS'FBtr0070135'
p1113
(lp1114
(g3
S'dwil_GLEANR_9233'
p1115
tp1116
a(g6
S'dvir_GLEANR_15099'
p1117
tp1118
a(g9
S'dper_GLEANR_13115'
p1119
tp1120
a(g12
S'dmoj_GLEANR_15922'
p1121
tp1122
a(g15
S'dsec_GLEANR_20684'
p1123
tp1124
a(g18
S'dpse_GLEANR_1121'
p1125
tp1126
a(g21
S'dsim_GLEANR_16731'
p1127
tp1128
a(g24
S'dgri_GLEANR_12012'
p1129
tp1130
a(g27
g1113
tp1131
a(g29
S'dere_GLEANR_12863'
p1132
tp1133
a(g32
S'dana_GLEANR_5940'
p1134
tp1135
a(g35
S'dyak_GLEANR_18037'
p1136
tp1137
asS'FBtr0070119'
p1138
(lp1139
(g3
S'dwil_GLEANR_16808'
p1140
tp1141
a(g6
S'dvir_GLEANR_17197'
p1142
tp1143
a(g9
S'dper_GLEANR_9417'
p1144
tp1145
a(g12
S'dmoj_GLEANR_6569'
p1146
tp1147
a(g15
S'dsec_GLEANR_20676'
p1148
tp1149
a(g18
S'dpse_GLEANR_10798'
p1150
tp1151
a(g21
S'dsim_GLEANR_16724'
p1152
tp1153
a(g24
S'dgri_GLEANR_8825'
p1154
tp1155
a(g27
g1138
tp1156
a(g29
S'dere_GLEANR_12856'
p1157
tp1158
a(g32
S'dana_GLEANR_5931'
p1159
tp1160
a(g35
S'dyak_GLEANR_18030'
p1161
tp1162
asS'FBtr0070038'
p1163
(lp1164
(g3
S'dwil_GLEANR_12106'
p1165
tp1166
a(g6
S'dvir_GLEANR_11099'
p1167
tp1168
a(g9
S'dper_GLEANR_3954'
p1169
tp1170
a(g12
S'dmoj_GLEANR_9154'
p1171
tp1172
a(g15
S'dsec_GLEANR_5267'
p1173
tp1174
a(g18
S'dpse_GLEANR_10077'
p1175
tp1176
a(g21
S'dsim_GLEANR_12113'
p1177
tp1178
a(g24
S'dgri_GLEANR_3829'
p1179
tp1180
a(g27
g1163
tp1181
a(g29
S'dere_GLEANR_16296'
p1182
tp1183
a(g32
S'dana_GLEANR_3406'
p1184
tp1185
a(g35
S'dyak_GLEANR_3315'
p1186
tp1187
asS'FBtr0070173'
p1188
(lp1189
(g3
S'dwil_GLEANR_16722'
p1190
tp1191
a(g6
S'dvir_GLEANR_15539'
p1192
tp1193
a(g9
S'dper_GLEANR_14889'
p1194
tp1195
a(g12
S'dmoj_GLEANR_16335'
p1196
tp1197
a(g15
S'dsec_GLEANR_20701'
p1198
tp1199
a(g18
S'dpse_GLEANR_10381'
p1200
tp1201
a(g21
S'dsim_GLEANR_16743'
p1202
tp1203
a(g24
S'dgri_GLEANR_11900'
p1204
tp1205
a(g27
g1188
tp1206
a(g29
S'dere_GLEANR_12877'
p1207
tp1208
a(g32
S'dana_GLEANR_6107'
p1209
tp1210
a(g35
S'dyak_GLEANR_18056'
p1211
tp1212
asS'FBtr0070116'
p1213
(lp1214
(g3
S'dwil_GLEANR_9637'
p1215
tp1216
a(g6
S'dvir_GLEANR_15040'
p1217
tp1218
a(g9
S'dper_GLEANR_15447'
p1219
tp1220
a(g12
S'dmoj_GLEANR_10968'
p1221
tp1222
a(g15
S'dsec_GLEANR_20675'
p1223
tp1224
a(g18
S'dpse_GLEANR_90'
p1225
tp1226
a(g21
S'dsim_GLEANR_16723'
p1227
tp1228
a(g24
S'dgri_GLEANR_9000'
p1229
tp1230
a(g27
g1213
tp1231
a(g29
S'dere_GLEANR_12855'
p1232
tp1233
a(g32
S'dana_GLEANR_4181'
p1234
tp1235
a(g35
S'dyak_GLEANR_18029'
p1236
tp1237
asS'FBtr0070161'
p1238
(lp1239
(g3
S'dwil_GLEANR_16557'
p1240
tp1241
a(g6
S'dvir_GLEANR_3500'
p1242
tp1243
a(g9
S'dper_GLEANR_3340'
p1244
tp1245
a(g12
S'dmoj_GLEANR_16531'
p1246
tp1247
a(g15
S'dsec_GLEANR_20635'
p1248
tp1249
a(g18
S'dpse_GLEANR_666'
p1250
tp1251
a(g21
S'dsim_GLEANR_16682'
p1252
tp1253
a(g24
S'dgri_GLEANR_9266'
p1254
tp1255
a(g27
g1238
tp1256
a(g29
S'dere_GLEANR_12814'
p1257
tp1258
a(g32
S'dana_GLEANR_6052'
p1259
tp1260
a(g35
S'dyak_GLEANR_17987'
p1261
tp1262
asS'FBtr0070177'
p1263
(lp1264
(g3
S'dwil_GLEANR_16725'
p1265
tp1266
a(g6
S'dvir_GLEANR_15542'
p1267
tp1268
a(g9
S'dper_GLEANR_14911'
p1269
tp1270
a(g12
S'dmoj_GLEANR_16338'
p1271
tp1272
a(g15
S'dsec_GLEANR_20704'
p1273
tp1274
a(g18
S'dpse_GLEANR_10897'
p1275
tp1276
a(g21
S'dsim_GLEANR_16746'
p1277
tp1278
a(g24
S'dgri_GLEANR_11903'
p1279
tp1280
a(g27
g1263
tp1281
a(g29
S'dere_GLEANR_12880'
p1282
tp1283
a(g32
S'dana_GLEANR_6110'
p1284
tp1285
a(g35
S'dyak_GLEANR_18059'
p1286
tp1287
asS'FBtr0070174'
p1288
(lp1289
(g3
S'dwil_GLEANR_16723'
p1290
tp1291
a(g6
S'dvir_GLEANR_15540'
p1292
tp1293
a(g9
S'dper_GLEANR_14909'
p1294
tp1295
a(g12
S'dmoj_GLEANR_16336'
p1296
tp1297
a(g15
S'dsec_GLEANR_20702'
p1298
tp1299
a(g18
S'dpse_GLEANR_10895'
p1300
tp1301
a(g21
S'dsim_GLEANR_16744'
p1302
tp1303
a(g24
S'dgri_GLEANR_11901'
p1304
tp1305
a(g27
g1288
tp1306
a(g29
S'dere_GLEANR_12878'
p1307
tp1308
a(g32
S'dana_GLEANR_6108'
p1309
tp1310
a(g35
S'dyak_GLEANR_18057'
p1311
tp1312
asS'FBtr0070175'
p1313
(lp1314
(g3
S'dwil_GLEANR_16724'
p1315
tp1316
a(g6
S'dvir_GLEANR_15541'
p1317
tp1318
a(g9
S'dper_GLEANR_14910'
p1319
tp1320
a(g12
S'dmoj_GLEANR_16337'
p1321
tp1322
a(g15
S'dsec_GLEANR_20703'
p1323
tp1324
a(g18
S'dpse_GLEANR_10896'
p1325
tp1326
a(g21
S'dsim_GLEANR_16745'
p1327
tp1328
a(g24
S'dgri_GLEANR_11902'
p1329
tp1330
a(g27
g1313
tp1331
a(g29
S'dere_GLEANR_12879'
p1332
tp1333
a(g32
S'dana_GLEANR_6109'
p1334
tp1335
a(g35
S'dyak_GLEANR_18058'
p1336
tp1337
asS'FBtr0070073'
p1338
(lp1339
(g3
S'dwil_GLEANR_9423'
p1340
tp1341
a(g6
S'dvir_GLEANR_16041'
p1342
tp1343
a(g9
S'dper_GLEANR_22718'
p1344
tp1345
a(g12
S'dmoj_GLEANR_10921'
p1346
tp1347
a(g15
S'dsec_GLEANR_20660'
p1348
tp1349
a(g18
S'dpse_GLEANR_958'
p1350
tp1351
a(g21
S'dsim_GLEANR_16709'
p1352
tp1353
a(g24
S'dgri_GLEANR_8987'
p1354
tp1355
a(g27
g1338
tp1356
a(g29
S'dere_GLEANR_12840'
p1357
tp1358
a(g32
S'dana_GLEANR_4647'
p1359
tp1360
a(g35
S'dyak_GLEANR_18015'
p1361
tp1362
asS'FBtr0070205'
p1363
(lp1364
(g3
S'dwil_GLEANR_9074'
p1365
tp1366
a(g6
S'dvir_GLEANR_16343'
p1367
tp1368
a(g9
S'dper_GLEANR_14924'
p1369
tp1370
a(g12
S'dmoj_GLEANR_16946'
p1371
tp1372
a(g15
S'dsec_GLEANR_20715'
p1373
tp1374
a(g18
S'dpse_GLEANR_10914'
p1375
tp1376
a(g21
S'dsim_GLEANR_8590'
p1377
tp1378
a(g24
S'dgri_GLEANR_12514'
p1379
tp1380
a(g27
g1363
tp1381
a(g29
S'dere_GLEANR_12891'
p1382
tp1383
a(g32
S'dana_GLEANR_6126'
p1384
tp1385
a(g35
S'dyak_GLEANR_18072'
p1386
tp1387
asS'FBtr0070071'
p1388
(lp1389
(g3
S'dwil_GLEANR_9421'
p1390
tp1391
a(g6
S'dvir_GLEANR_16037'
p1392
tp1393
a(g9
S'dper_GLEANR_22716'
p1394
tp1395
a(g12
S'dmoj_GLEANR_6710'
p1396
tp1397
a(g15
S'dsec_GLEANR_20658'
p1398
tp1399
a(g18
S'dpse_GLEANR_956'
p1400
tp1401
a(g21
S'dsim_GLEANR_8582'
p1402
tp1403
a(g24
S'dgri_GLEANR_8985'
p1404
tp1405
a(g27
g1388
tp1406
a(g29
S'dere_GLEANR_12838'
p1407
tp1408
a(g32
S'dana_GLEANR_4645'
p1409
tp1410
a(g35
S'dyak_GLEANR_18013'
p1411
tp1412
asS'FBtr0070207'
p1413
(lp1414
(g3
S'dwil_GLEANR_16611'
p1415
tp1416
a(g6
S'dvir_GLEANR_3748'
p1417
tp1418
a(g9
S'dper_GLEANR_9301'
p1419
tp1420
a(g12
S'dmoj_GLEANR_15751'
p1421
tp1422
a(g15
S'dsec_GLEANR_20717'
p1423
tp1424
a(g18
S'dpse_GLEANR_11510'
p1425
tp1426
a(g21
S'dsim_GLEANR_16753'
p1427
tp1428
a(g24
S'dgri_GLEANR_12781'
p1429
tp1430
a(g27
g1413
tp1431
a(g29
S'dere_GLEANR_12894'
p1432
tp1433
a(g32
S'dana_GLEANR_5996'
p1434
tp1435
a(g35
S'dyak_GLEANR_18076'
p1436
tp1437
asS'FBtr0070200'
p1438
(lp1439
(g3
S'dwil_GLEANR_16730'
p1440
tp1441
a(g6
S'dvir_GLEANR_16814'
p1442
tp1443
a(g9
S'dper_GLEANR_14920'
p1444
tp1445
a(g12
S'dmoj_GLEANR_16350'
p1446
tp1447
a(g15
S'dsec_GLEANR_20710'
p1448
tp1449
a(g18
S'dpse_GLEANR_10909'
p1450
tp1451
a(g21
S'dsim_GLEANR_8589'
p1452
tp1453
a(g24
S'dgri_GLEANR_11911'
p1454
tp1455
a(g27
g1438
tp1456
a(g29
S'dere_GLEANR_12886'
p1457
tp1458
a(g32
S'dana_GLEANR_6121'
p1459
tp1460
a(g35
S'dyak_GLEANR_18067'
p1461
tp1462
asS'FBtr0070201'
p1463
(lp1464
(g3
S'dwil_GLEANR_16731'
p1465
tp1466
a(g6
S'dvir_GLEANR_15548'
p1467
tp1468
a(g9
S'dper_GLEANR_14921'
p1469
tp1470
a(g12
S'dmoj_GLEANR_16351'
p1471
tp1472
a(g15
S'dsec_GLEANR_20711'
p1473
tp1474
a(g18
S'dpse_GLEANR_10910'
p1475
tp1476
a(g21
S'dsim_GLEANR_16749'
p1477
tp1478
a(g24
S'dgri_GLEANR_11912'
p1479
tp1480
a(g27
g1463
tp1481
a(g29
S'dere_GLEANR_12887'
p1482
tp1483
a(g32
S'dana_GLEANR_6122'
p1484
tp1485
a(g35
S'dyak_GLEANR_18068'
p1486
tp1487
asS'FBtr0070202'
p1488
(lp1489
(g3
S'dwil_GLEANR_16732'
p1490
tp1491
a(g6
S'dvir_GLEANR_15549'
p1492
tp1493
a(g9
S'dper_GLEANR_14922'
p1494
tp1495
a(g12
S'dmoj_GLEANR_16352'
p1496
tp1497
a(g15
S'dsec_GLEANR_20712'
p1498
tp1499
a(g18
S'dpse_GLEANR_10911'
p1500
tp1501
a(g21
S'dsim_GLEANR_16750'
p1502
tp1503
a(g24
S'dgri_GLEANR_11913'
p1504
tp1505
a(g27
g1488
tp1506
a(g29
S'dere_GLEANR_12888'
p1507
tp1508
a(g32
S'dana_GLEANR_6123'
p1509
tp1510
a(g35
S'dyak_GLEANR_18069'
p1511
tp1512
asS'FBtr0070074'
p1513
(lp1514
(g3
S'dwil_GLEANR_9424'
p1515
tp1516
a(g6
S'dvir_GLEANR_16042'
p1517
tp1518
a(g9
S'dper_GLEANR_22719'
p1519
tp1520
a(g12
S'dmoj_GLEANR_10922'
p1521
tp1522
a(g15
S'dsec_GLEANR_20661'
p1523
tp1524
a(g18
S'dpse_GLEANR_959'
p1525
tp1526
a(g21
S'dsim_GLEANR_16710'
p1527
tp1528
a(g24
S'dgri_GLEANR_8988'
p1529
tp1530
a(g27
g1513
tp1531
a(g29
S'dere_GLEANR_12841'
p1532
tp1533
a(g32
S'dana_GLEANR_4648'
p1534
tp1535
a(g35
S'dyak_GLEANR_18016'
p1536
tp1537
asS'FBtr0070091'
p1538
(lp1539
(g3
S'dwil_GLEANR_16508'
p1540
tp1541
a(g6
S'dvir_GLEANR_14963'
p1542
tp1543
a(g9
S'dper_GLEANR_22522'
p1544
tp1545
a(g12
S'dmoj_GLEANR_16175'
p1546
tp1547
a(g15
S'dsec_GLEANR_20637'
p1548
tp1549
a(g18
S'dpse_GLEANR_425'
p1550
tp1551
a(g21
S'dsim_GLEANR_16685'
p1552
tp1553
a(g24
S'dgri_GLEANR_12524'
p1554
tp1555
a(g27
g1538
tp1556
a(g29
S'dere_GLEANR_12816'
p1557
tp1558
a(g32
S'dana_GLEANR_6201'
p1559
tp1560
a(g35
S'dyak_GLEANR_17989'
p1561
tp1562
asS'FBtr0070079'
p1563
(lp1564
(g3
S'dwil_GLEANR_2487'
p1565
tp1566
a(g6
S'dvir_GLEANR_16092'
p1567
tp1568
a(g9
S'dper_GLEANR_22723'
p1569
tp1570
a(g12
S'dmoj_GLEANR_17034'
p1571
tp1572
a(g15
S'dsec_GLEANR_20666'
p1573
tp1574
a(g18
S'dpse_GLEANR_962'
p1575
tp1576
a(g21
S'dsim_GLEANR_16715'
p1577
tp1578
a(g24
S'dgri_GLEANR_9057'
p1579
tp1580
a(g27
g1563
tp1581
a(g29
S'dere_GLEANR_12846'
p1582
tp1583
a(g32
S'dana_GLEANR_4652'
p1584
tp1585
a(g35
S'dyak_GLEANR_18019'
p1586
tp1587
asS'FBtr0070092'
p1588
(lp1589
(g3
S'dwil_GLEANR_9209'
p1590
tp1591
a(g6
S'dvir_GLEANR_16357'
p1592
tp1593
a(g9
S'dper_GLEANR_22523'
p1594
tp1595
a(g12
S'dmoj_GLEANR_16960'
p1596
tp1597
a(g15
S'dsec_GLEANR_20638'
p1598
tp1599
a(g18
S'dpse_GLEANR_426'
p1600
tp1601
a(g21
S'dsim_GLEANR_16686'
p1602
tp1603
a(g24
S'dgri_GLEANR_9191'
p1604
tp1605
a(g27
g1588
tp1606
a(g29
S'dere_GLEANR_12817'
p1607
tp1608
a(g32
S'dana_GLEANR_4059'
p1609
tp1610
a(g35
S'dyak_GLEANR_17990'
p1611
tp1612
asS'FBtr0070094'
p1613
(lp1614
(g3
S'dwil_GLEANR_1751'
p1615
tp1616
a(g6
S'dvir_GLEANR_16358'
p1617
tp1618
a(g9
S'dper_GLEANR_22524'
p1619
tp1620
a(g12
S'dmoj_GLEANR_16961'
p1621
tp1622
a(g15
S'dsec_GLEANR_20639'
p1623
tp1624
a(g18
S'dpse_GLEANR_427'
p1625
tp1626
a(g21
S'dsim_GLEANR_16687'
p1627
tp1628
a(g24
S'dgri_GLEANR_9192'
p1629
tp1630
a(g27
g1613
tp1631
a(g29
S'dere_GLEANR_12818'
p1632
tp1633
a(g32
S'dana_GLEANR_4060'
p1634
tp1635
a(g35
S'dyak_GLEANR_17991'
p1636
tp1637
asS'FBtr0070209'
p1638
(lp1639
(g3
S'dwil_GLEANR_16734'
p1640
tp1641
a(g6
S'dvir_GLEANR_3749'
p1642
tp1643
a(g9
S'dper_GLEANR_14929'
p1644
tp1645
a(g12
S'dmoj_GLEANR_15752'
p1646
tp1647
a(g15
S'dsec_GLEANR_20718'
p1648
tp1649
a(g18
S'dpse_GLEANR_10918'
p1650
tp1651
a(g21
S'dsim_GLEANR_8593'
p1652
tp1653
a(g24
S'dgri_GLEANR_12732'
p1654
tp1655
a(g27
g1638
tp1656
a(g29
S'dere_GLEANR_12895'
p1657
tp1658
a(g32
S'dana_GLEANR_4239'
p1659
tp1660
a(g35
S'dyak_GLEANR_18077'
p1661
tp1662
as.